; Function Attrs: null_pointer_is_valid sspstrong uwtable
define internal void @dissect_pfcp_activation_time(ptr noundef %0, ptr noundef %1, ptr noundef %2, ptr noundef %3, i16 noundef zeroext %4, i8 zeroext %5, ptr readnone captures(none) %6) #0 {
  %8 = alloca ptr, align 8
  call void @llvm.lifetime.start.p0(i64 8, ptr nonnull %8) #15
  %9 = load i32, ptr @hf_pfcp_activation_time, align 4
  %10 = getelementptr inbounds nuw i8, ptr %1, i64 408
  %11 = load ptr, ptr %10, align 8
  %12 = call ptr @proto_tree_add_item_ret_time_string(ptr noundef %2, i32 noundef %9, ptr noundef %0, i32 noundef 0, i32 noundef 4, i32 noundef 2, ptr noundef %11, ptr noundef nonnull %8)
  %13 = load ptr, ptr %8, align 8
  call void (ptr, ptr, ...) @proto_item_append_text(ptr noundef %3, ptr noundef nonnull @.str.2654, ptr noundef %13)
  %14 = icmp ugt i16 %4, 4
  br i1 %14, label %15, label %17

15:                                               ; preds = %7
  %16 = call ptr @proto_tree_add_expert(ptr noundef %2, ptr noundef %1, ptr noundef nonnull @ei_pfcp_ie_data_not_decoded, ptr noundef %0, i32 noundef 4, i32 noundef -1)
  br label %17

17:                                               ; preds = %15, %7
  call void @llvm.lifetime.end.p0(i64 8, ptr nonnull %8) #15
  ret void
}